target datalayout = "e-m:e-p270:32:32-p271:32:32-p272:64:64-i64:64-i128:128-f80:128-n8:16:32:64-S128"
target triple = "x86_64-pc-linux-gnu"

%struct.NativeScalerContext = type { ptr, i32, i32, i32, i32, i32, double }
%struct.AWTChar2b = type { i8, i8 }

; Function Attrs: nounwind uwtable
define i64 @Java_sun_font_NativeFont_getGlyphImage(ptr noundef %0, ptr noundef %1, i64 noundef %2, i32 noundef %3) #0 {
  %5 = alloca i64, align 8
  %6 = alloca ptr, align 8
  %7 = alloca ptr, align 8
  %8 = alloca i64, align 8
  %9 = alloca i32, align 4
  %10 = alloca %struct.AWTChar2b, align 1
  %11 = alloca ptr, align 8
  %12 = alloca ptr, align 8
  store ptr %0, ptr %6, align 8
  store ptr %1, ptr %7, align 8
  store i64 %2, ptr %8, align 8
  store i32 %3, ptr %9, align 4
  %13 = load i64, ptr %8, align 8
  %14 = inttoptr i64 %13 to ptr
  store ptr %14, ptr %12, align 8
  %15 = load ptr, ptr %12, align 8
  %16 = icmp eq ptr %15, null
  br i1 %16, label %17, label %18

17:                                               ; preds = %4
  store i64 0, ptr %5, align 8
  br label %58

18:                                               ; preds = %4
  %19 = load ptr, ptr %12, align 8
  %20 = getelementptr inbounds %struct.NativeScalerContext, ptr %19, i32 0, i32 0
  %21 = load ptr, ptr %20, align 8
  store ptr %21, ptr %11, align 8
  br label %22

22:                                               ; preds = %18
  %23 = load ptr, ptr %11, align 8
  %24 = icmp eq ptr %23, null
  br i1 %24, label %31, label %25

25:                                               ; preds = %22
  %26 = load ptr, ptr %12, align 8
  %27 = getelementptr inbounds %struct.NativeScalerContext, ptr %26, i32 0, i32 5
  %28 = load i32, ptr %27, align 8
  %29 = sitofp i32 %28 to double
  %30 = fcmp oeq double %29, -1.000000e+00
  br i1 %30, label %31, label %32

31:                                               ; preds = %25, %22
  store i64 0, ptr %5, align 8
  br label %58

32:                                               ; preds = %25
  %33 = load i32, ptr %9, align 4
  %34 = load ptr, ptr %12, align 8
  %35 = getelementptr inbounds %struct.NativeScalerContext, ptr %34, i32 0, i32 1
  %36 = load i32, ptr %35, align 8
  %37 = icmp slt i32 %33, %36
  br i1 %37, label %44, label %38

38:                                               ; preds = %32
  %39 = load i32, ptr %9, align 4
  %40 = load ptr, ptr %12, align 8
  %41 = getelementptr inbounds %struct.NativeScalerContext, ptr %40, i32 0, i32 2
  %42 = load i32, ptr %41, align 4
  %43 = icmp sgt i32 %39, %42
  br i1 %43, label %44, label %48

44:                                               ; preds = %38, %32
  %45 = load ptr, ptr %12, align 8
  %46 = getelementptr inbounds %struct.NativeScalerContext, ptr %45, i32 0, i32 4
  %47 = load i32, ptr %46, align 4
  store i32 %47, ptr %9, align 4
  br label %48

48:                                               ; preds = %44, %38
  %49 = load i32, ptr %9, align 4
  %50 = ashr i32 %49, 8
  %51 = trunc i32 %50 to i8
  %52 = getelementptr inbounds %struct.AWTChar2b, ptr %10, i32 0, i32 0
  store i8 %51, ptr %52, align 1
  %53 = load i32, ptr %9, align 4
  %54 = trunc i32 %53 to i8
  %55 = getelementptr inbounds %struct.AWTChar2b, ptr %10, i32 0, i32 1
  store i8 %54, ptr %55, align 1
  %56 = load ptr, ptr %11, align 8
  %57 = call i64 @AWTFontGenerateImage(ptr noundef %56, ptr noundef %10)
  store i64 %57, ptr %5, align 8
  br label %58

58:                                               ; preds = %48, %31, %17
  %59 = load i64, ptr %5, align 8
  ret i64 %59
}